target datalayout = "e-m:e-p270:32:32-p271:32:32-p272:64:64-i64:64-i128:128-f80:128-n8:16:32:64-S128"
target triple = "x86_64-pc-linux-gnu"

%struct.expert_field = type { i32, i32 }

@hf_nfapi_frequency_band_indicator = internal global i32 0, align 4
@hf_nfapi_measurement_period = internal global i32 0, align 4
@hf_nfapi_bandwidth = internal global i32 0, align 4
@hf_nfapi_timeout = internal global i32 0, align 4
@hf_nfapi_number_of_earfcns = internal global i32 0, align 4
@ett_nfapi_earfcn_list = internal global i32 0, align 4
@ei_invalid_range = internal global %struct.expert_field zeroinitializer, align 4
@.str.1839 = private unnamed_addr constant [3 x i8] c"%s\00", align 1
@.str.1840 = private unnamed_addr constant [5 x i8] c"[%d]\00", align 1
@.str.2332 = private unnamed_addr constant [49 x i8] c"Invalid bandwidth value [6, 15, 25, 50, 75, 100]\00", align 1
@.str.2333 = private unnamed_addr constant [8 x i8] c"EARFCNs\00", align 1

; Function Attrs: nounwind uwtable
define internal void @dissect_array_value(ptr noundef %0, ptr noundef %1, ptr noundef %2, i32 noundef %3, i32 noundef %4, ptr noundef %5) #0 {
  %7 = alloca ptr, align 8
  %8 = alloca ptr, align 8
  %9 = alloca ptr, align 8
  %10 = alloca i32, align 4
  %11 = alloca i32, align 4
  %12 = alloca ptr, align 8
  %13 = alloca i16, align 2
  store ptr %0, ptr %7, align 8
  store ptr %1, ptr %8, align 8
  store ptr %2, ptr %9, align 8
  store i32 %3, ptr %10, align 4
  store i32 %4, ptr %11, align 4
  store ptr %5, ptr %12, align 8
  %14 = load i32, ptr %11, align 4
  %15 = icmp ugt i32 %14, 0
  br i1 %15, label %16, label %41

16:                                               ; preds = %6
  %17 = load ptr, ptr %7, align 8
  %18 = load i32, ptr %10, align 4
  %19 = load ptr, ptr %9, align 8
  %20 = call ptr (ptr, i32, i32, ptr, ...) @ptvcursor_add_text_with_subtree(ptr noundef %17, i32 noundef -1, i32 noundef %18, ptr noundef @.str.1839, ptr noundef %19)
  store i16 0, ptr %13, align 2
  br label %21

21:                                               ; preds = %36, %16
  %22 = load i16, ptr %13, align 2
  %23 = zext i16 %22 to i32
  %24 = load i32, ptr %11, align 4
  %25 = icmp ult i32 %23, %24
  br i1 %25, label %26, label %39

26:                                               ; preds = %21
  %27 = load ptr, ptr %7, align 8
  %28 = load i32, ptr %10, align 4
  %29 = load i16, ptr %13, align 2
  %30 = zext i16 %29 to i32
  %31 = call ptr (ptr, i32, i32, ptr, ...) @ptvcursor_add_text_with_subtree(ptr noundef %27, i32 noundef -1, i32 noundef %28, ptr noundef @.str.1840, i32 noundef %30)
  %32 = load ptr, ptr %12, align 8
  %33 = load ptr, ptr %7, align 8
  %34 = load ptr, ptr %8, align 8
  call void %32(ptr noundef %33, ptr noundef %34)
  %35 = load ptr, ptr %7, align 8
  call void @ptvcursor_pop_subtree(ptr noundef %35)
  br label %36

36:                                               ; preds = %26
  %37 = load i16, ptr %13, align 2
  %38 = add i16 %37, 1
  store i16 %38, ptr %13, align 2
  br label %21, !llvm.loop !4

39:                                               ; preds = %21
  %40 = load ptr, ptr %7, align 8
  call void @ptvcursor_pop_subtree(ptr noundef %40)
  br label %41

41:                                               ; preds = %39, %6
  ret void
}

; Function Attrs: nounwind uwtable
define internal void @dissect_lte_rssi_request_value(ptr noundef %0, ptr noundef %1) #0 {
  %3 = alloca ptr, align 8
  %4 = alloca ptr, align 8
  %5 = alloca i32, align 4
  %6 = alloca i32, align 4
  %7 = alloca ptr, align 8
  store ptr %0, ptr %3, align 8
  store ptr %1, ptr %4, align 8
  %8 = load ptr, ptr %3, align 8
  %9 = load i32, ptr @hf_nfapi_frequency_band_indicator, align 4
  %10 = call ptr @ptvcursor_add(ptr noundef %8, i32 noundef %9, i32 noundef 1, i32 noundef 0)
  %11 = load ptr, ptr %3, align 8
  %12 = load i32, ptr @hf_nfapi_measurement_period, align 4
  %13 = call ptr @ptvcursor_add(ptr noundef %11, i32 noundef %12, i32 noundef 2, i32 noundef 0)
  %14 = load ptr, ptr %3, align 8
  %15 = load i32, ptr @hf_nfapi_bandwidth, align 4
  %16 = call ptr @ptvcursor_add_ret_uint(ptr noundef %14, i32 noundef %15, i32 noundef 1, i32 noundef 0, ptr noundef %5)
  store ptr %16, ptr %7, align 8
  %17 = load i32, ptr %5, align 4
  %18 = icmp eq i32 %17, 6
  br i1 %18, label %38, label %19

19:                                               ; preds = %2
  %20 = load i32, ptr %5, align 4
  %21 = icmp eq i32 %20, 15
  br i1 %21, label %38, label %22

22:                                               ; preds = %19
  %23 = load i32, ptr %5, align 4
  %24 = icmp eq i32 %23, 25
  br i1 %24, label %38, label %25

25:                                               ; preds = %22
  %26 = load i32, ptr %5, align 4
  %27 = icmp eq i32 %26, 50
  br i1 %27, label %38, label %28

28:                                               ; preds = %25
  %29 = load i32, ptr %5, align 4
  %30 = icmp eq i32 %29, 75
  br i1 %30, label %38, label %31

31:                                               ; preds = %28
  %32 = load i32, ptr %5, align 4
  %33 = icmp eq i32 %32, 100
  br i1 %33, label %38, label %34

34:                                               ; preds = %31
  %35 = load ptr, ptr %4, align 8
  %36 = load ptr, ptr %7, align 8
  %37 = call ptr (ptr, ptr, ptr, ptr, ...) @expert_add_info_format(ptr noundef %35, ptr noundef %36, ptr noundef @ei_invalid_range, ptr noundef @.str.2332)
  br label %38

38:                                               ; preds = %34, %31, %28, %25, %22, %19, %2
  %39 = load ptr, ptr %3, align 8
  %40 = load i32, ptr @hf_nfapi_timeout, align 4
  %41 = call ptr @ptvcursor_add(ptr noundef %39, i32 noundef %40, i32 noundef 4, i32 noundef 0)
  %42 = load ptr, ptr %3, align 8
  %43 = load i32, ptr @hf_nfapi_number_of_earfcns, align 4
  %44 = call ptr @ptvcursor_add_ret_uint(ptr noundef %42, i32 noundef %43, i32 noundef 1, i32 noundef 0, ptr noundef %6)
  %45 = load ptr, ptr %3, align 8
  %46 = load ptr, ptr %4, align 8
  %47 = load i32, ptr @ett_nfapi_earfcn_list, align 4
  %48 = load i32, ptr %6, align 4
  call void @dissect_array_value(ptr noundef %45, ptr noundef %46, ptr noundef @.str.2333, i32 noundef %47, i32 noundef %48, ptr noundef @dissect_earfcn_value)
  ret void
}