; Function Attrs: nounwind uwtable
define internal void @dissect_lte_rssi_request_value(ptr noundef %0, ptr noundef %1) #0 {
  %3 = alloca i32, align 4
  %4 = alloca i32, align 4
  %5 = load i32, ptr @hf_nfapi_frequency_band_indicator, align 4
  %6 = tail call ptr @ptvcursor_add(ptr noundef %0, i32 noundef %5, i32 noundef 1, i32 noundef 0) #7
  %7 = load i32, ptr @hf_nfapi_measurement_period, align 4
  %8 = tail call ptr @ptvcursor_add(ptr noundef %0, i32 noundef %7, i32 noundef 2, i32 noundef 0) #7
  %9 = load i32, ptr @hf_nfapi_bandwidth, align 4
  %10 = call ptr @ptvcursor_add_ret_uint(ptr noundef %0, i32 noundef %9, i32 noundef 1, i32 noundef 0, ptr noundef nonnull %3) #7
  %11 = load i32, ptr %3, align 4
  switch i32 %11, label %12 [
    i32 100, label %14
    i32 75, label %14
    i32 50, label %14
    i32 25, label %14
    i32 15, label %14
    i32 6, label %14
  ]

12:                                               ; preds = %2
  %13 = call ptr (ptr, ptr, ptr, ptr, ...) @expert_add_info_format(ptr noundef %1, ptr noundef %10, ptr noundef nonnull @ei_invalid_range, ptr noundef nonnull @.str.2332) #7
  br label %14

14:                                               ; preds = %2, %2, %2, %2, %2, %2, %12
  %15 = load i32, ptr @hf_nfapi_timeout, align 4
  %16 = call ptr @ptvcursor_add(ptr noundef %0, i32 noundef %15, i32 noundef 4, i32 noundef 0) #7
  %17 = load i32, ptr @hf_nfapi_number_of_earfcns, align 4
  %18 = call ptr @ptvcursor_add_ret_uint(ptr noundef %0, i32 noundef %17, i32 noundef 1, i32 noundef 0, ptr noundef nonnull %4) #7
  %19 = load i32, ptr @ett_nfapi_earfcn_list, align 4
  %20 = load i32, ptr %4, align 4
  %.not.i = icmp eq i32 %20, 0
  br i1 %.not.i, label %dissect_array_value.exit, label %21

21:                                               ; preds = %14
  %22 = call ptr (ptr, i32, i32, ptr, ...) @ptvcursor_add_text_with_subtree(ptr noundef %0, i32 noundef -1, i32 noundef %19, ptr noundef nonnull @.str.1839, ptr noundef nonnull @.str.2333) #7
  br label %23

23:                                               ; preds = %23, %21
  %24 = phi i32 [ 0, %21 ], [ %29, %23 ]
  %.016.i = phi i16 [ 0, %21 ], [ %28, %23 ]
  %25 = call ptr (ptr, i32, i32, ptr, ...) @ptvcursor_add_text_with_subtree(ptr noundef %0, i32 noundef -1, i32 noundef %19, ptr noundef nonnull @.str.1840, i32 noundef %24) #7
  %26 = load i32, ptr @hf_nfapi_earfcn, align 4
  %27 = call ptr @ptvcursor_add(ptr noundef %0, i32 noundef %26, i32 noundef 2, i32 noundef 0) #7
  call void @ptvcursor_pop_subtree(ptr noundef %0) #7
  %28 = add i16 %.016.i, 1
  %29 = zext i16 %28 to i32
  %30 = icmp ugt i32 %20, %29
  br i1 %30, label %23, label %31, !llvm.loop !4

31:                                               ; preds = %23
  call void @ptvcursor_pop_subtree(ptr noundef %0) #7
  br label %dissect_array_value.exit

dissect_array_value.exit:                         ; preds = %14, %31
  ret void
}